(lp0
(F-2.3012177734000003
F-0.089409729
tp1
a(F-2.2931269531
F-0.2689145508
tp2
a(F-2.2769433594
F-0.44766284180000004
tp3
a(F-2.2287001953
F-0.7638409424
tp4
a(F-2.2245
F-0.7823609009000001
tp5
a(F-2.14
F-0.8101309204
tp6
a(F-1.9794003906
F-0.8286508789
tp7
a(F-1.8990996093999999
F-0.8379108887
tp8
a(F-1.4153701172000002
F-0.8729408569
tp9
a(F-1.0280595703
F-0.8872908325
tp10
a(F-0.9280595703
F-0.8889658203
tp11
a(F-0.8280595703
F-0.8906408080999999
tp12
a(F-0.5780400390999999
F-0.8929107666
tp13
a(F0.918
F-0.9003306885
tp14
a(F1.2510698242
F-0.8922706299000001
tp15
a(F1.2899399414
F-0.8913206176999999
tp16
a(F1.3288847656
F-0.8901955566
tp17
a(F1.4063198242000001
F-0.8873706055
tp18
a(F1.44425
F-0.8854005737
tp19
a(F1.4816201172
F-0.8831605835
tp20
a(F1.5597197266
F-0.8780806274
tp21
a(F1.5975898438
F-0.8750606079000001
tp22
a(F1.6328398438
F-0.8716505737
tp23
a(F1.668
F-0.8678705444
tp24
a(F1.6995400391
F-0.8640105591
tp25
a(F1.8010800781
F-0.8508205566
tp26
a(F1.8346801758
F-0.8462805176
tp27
a(F1.8680200195
F-0.841390564
tp28
a(F2.0085
F-0.8196305542
tp29
a(F2.0326401367
F-0.8126205444
tp30
a(F2.1242900391
F-0.734760498
tp31
a(F2.1433100586
F-0.7161605225
tp32
a(F2.1618198241999997
F-0.6971505127000001
tp33
a(F2.1896499023000002
F-0.6518005371000001
tp34
a(F2.2029799805
F-0.6288704834
tp35
a(F2.2177700195
F-0.577760498
tp36
a(F2.2250097656
F-0.5521705322
tp37
a(F2.2378701172
F-0.5005404968
tp38
a(F2.2442797852
F-0.47472052000000003
tp39
a(F2.2492998047
F-0.44860052489999996
tp40
a(F2.2643500977
F-0.37022052
tp41
a(F2.2679501953
F-0.3438605347
tp42
a(F2.2749902344
F-0.2911305542
tp43
a(F2.2855400391
F-0.2120205688
tp44
a(F2.2875898437999997
F-0.18550054929999998
tp45
a(F2.2914399413999997
F-0.132430542
tp46
a(F2.2933598633
F-0.10590051269999999
tp47
a(F2.2943901366999997
F-0.07932055660000001
tp48
a(F2.2954101563
F-0.0527305298
tp49
a(F2.2955600586
F-0.0261305542
tp50
a(F2.2957099609
F0.00046948240000000004
tp51
a(F2.2955600586
F0.027069458
tp52
a(F2.2954101563
F0.0536694336
tp53
a(F2.2943901366999997
F0.0802594604
tp54
a(F2.2933598633
F0.1068394775
tp55
a(F2.2914399413999997
F0.13336956789999999
tp56
a(F2.2875898437999997
F0.1864395142
tp57
a(F2.2855400391
F0.2129595337
tp58
a(F2.2749902344
F0.292069519
tp59
a(F2.2679501953
F0.34479949950000005
tp60
a(F2.2643500977
F0.3711594849
tp61
a(F2.2492998047
F0.4495394897
tp62
a(F2.2442797852
F0.4756594849
tp63
a(F2.2378701172
F0.5014795532
tp64
a(F2.2250097656
F0.5531095581
tp65
a(F2.2177700195
F0.5786995239
tp66
a(F2.2029799805
F0.6298095092999999
tp67
a(F2.1896499023000002
F0.652739563
tp68
a(F2.1618198241999997
F0.6980895386
tp69
a(F2.1433100586
F0.7170995483
tp70
a(F2.1242900391
F0.7356995239
tp71
a(F2.0350585938
F0.8153740844999999
tp72
a(F2.0109394531
F0.8224550171
tp73
a(F1.8705244141000001
F0.8445877075
tp74
a(F1.8371992188
F0.8495767211999999
tp75
a(F1.803612793
F0.8542125854
tp76
a(F1.7021123047000002
F0.8676555786
tp77
a(F1.6705834961000001
F0.8714783325
tp78
a(F1.6354345703
F0.8749692993
tp79
a(F1.6001943359
F0.8780912476
tp80
a(F1.5623325195
F0.8809075317
tp81
a(F1.4842480469
F0.8858336792
tp82
a(F1.4468842773
F0.8880662231
tp83
a(F1.4089599608999999
F0.8900650024
tp84
a(F1.3314892578
F0.8933114624
tp85
a(F0.9206835938000001
F0.9064021606
tp86
a(F-0.5780400390999999
F0.8938493042
tp87
a(F-0.7030498047
F0.8927142943999999
tp88
a(F-0.8280595703
F0.8915791626
tp89
a(F-1.0280595703
F0.888229187
tp90
a(F-1.4153701172000002
F0.8738792114
tp91
a(F-1.8990996093999999
F0.8388491821
tp92
a(F-1.9794003906
F0.8295891724000001
tp93
a(F-2.14
F0.8110691528
tp94
a(F-2.2202998047
F0.8018090210000001
tp95
a(F-2.2245
F0.7832990112
tp96
a(F-2.2287001953
F0.7647789917
tp97
a(F-2.2526660156
F0.6260874634000001
tp98
a(F-2.2769414062
F0.44860052489999996
tp99
a(F-2.2931259766
F0.269852478
tp100
a(F-2.3012177734000003
F0.0903475342
tp101
a.