(lp0
(F-2.11
F-0.037
tp1
a(F-2.1090000000000004
F-0.084
tp2
a(F-2.108
F-0.119
tp3
a(F-2.1060000000000003
F-0.164
tp4
a(F-2.103
F-0.218
tp5
a(F-2.1
F-0.253
tp6
a(F-2.095
F-0.307
tp7
a(F-2.0930000000000004
F-0.325
tp8
a(F-2.0900000000000003
F-0.351
tp9
a(F-2.084
F-0.396
tp10
a(F-2.0800000000000005
F-0.422
tp11
a(F-2.0770000000000004
F-0.44
tp12
a(F-2.071
F-0.475
tp13
a(F-2.0660000000000003
F-0.501
tp14
a(F-2.0640000000000005
F-0.51
tp15
a(F-2.06
F-0.528
tp16
a(F-2.0560000000000005
F-0.545
tp17
a(F-2.052
F-0.562
tp18
a(F-2.0500000000000003
F-0.57
tp19
a(F-2.0400000000000005
F-0.604
tp20
a(F-2.0340000000000003
F-0.62
tp21
a(F-2.03
F-0.63
tp22
a(F-2.0269999999999997
F-0.637
tp23
a(F-2.023
F-0.646
tp24
a(F-2.0189999999999997
F-0.654
tp25
a(F-2.009
F-0.67
tp26
a(F-2.004
F-0.677
tp27
a(F-1.9979999999999998
F-0.685
tp28
a(F-1.9920000000000004
F-0.692
tp29
a(F-1.9860000000000002
F-0.699
tp30
a(F-1.9780000000000002
F-0.706
tp31
a(F-1.9710000000000005
F-0.712
tp32
a(F-1.9630000000000005
F-0.718
tp33
a(F-1.9470000000000005
F-0.728
tp34
a(F-1.9380000000000002
F-0.733
tp35
a(F-1.9209999999999998
F-0.741
tp36
a(F-1.903
F-0.748
tp37
a(F-1.8939999999999997
F-0.751
tp38
a(F-1.166
F-0.982
tp39
a(F1.3729999999999998
F-0.982
tp40
a(F1.859
F-0.779
tp41
a(F1.8739999999999999
F-0.772
tp42
a(F1.882
F-0.768
tp43
a(F1.8889999999999998
F-0.764
tp44
a(F1.904
F-0.755
tp45
a(F1.9209999999999998
F-0.743
tp46
a(F1.9449999999999998
F-0.723
tp47
a(F1.9509999999999998
F-0.717
tp48
a(F1.962
F-0.705
tp49
a(F1.9769999999999999
F-0.687
tp50
a(F1.9889999999999999
F-0.671
tp51
a(F2.004
F-0.65
tp52
a(F2.013
F-0.637
tp53
a(F2.0229999999999997
F-0.622
tp54
a(F2.03
F-0.611
tp55
a(F2.0349999999999997
F-0.603
tp56
a(F2.0429999999999997
F-0.59
tp57
a(F2.0589999999999997
F-0.563
tp58
a(F2.068
F-0.547
tp59
a(F2.077
F-0.531
tp60
a(F2.085
F-0.516
tp61
a(F2.097
F-0.493
tp62
a(F2.118
F-0.45
tp63
a(F2.124
F-0.437
tp64
a(F2.128
F-0.428
tp65
a(F2.129
F-0.425
tp66
a(F2.131
F-0.418
tp67
a(F2.132
F-0.414
tp68
a(F2.133
F-0.41
tp69
a(F2.165
F-0.251
tp70
a(F2.171
F-0.22
tp71
a(F2.179
F-0.164
tp72
a(F2.1799999999999997
F-0.157
tp73
a(F2.181
F-0.149
tp74
a(F2.1839999999999997
F-0.121
tp75
a(F2.185
F-0.107
tp76
a(F2.186
F-0.093
tp77
a(F2.1879999999999997
F-0.063
tp78
a(F2.189
F-0.039
tp79
a(F2.189
F0.032
tp80
a(F2.187
F0.072
tp81
a(F2.186
F0.086
tp82
a(F2.182
F0.129
tp83
a(F2.175
F0.179
tp84
a(F2.1719999999999997
F0.2
tp85
a(F2.169
F0.22
tp86
a(F2.163
F0.251
tp87
a(F2.134
F0.4
tp88
a(F2.133
F0.404
tp89
a(F2.131
F0.411
tp90
a(F2.127
F0.424
tp91
a(F2.125
F0.43
tp92
a(F2.122
F0.437
tp93
a(F2.112
F0.458
tp94
a(F2.1069999999999998
F0.468
tp95
a(F2.088
F0.506
tp96
a(F2.0789999999999997
F0.523
tp97
a(F2.074
F0.532
tp98
a(F2.065
F0.548
tp99
a(F2.061
F0.555
tp100
a(F2.0509999999999997
F0.572
tp101
a(F2.0309999999999997
F0.605
tp102
a(F2.026
F0.613
tp103
a(F2.008
F0.64
tp104
a(F1.9809999999999999
F0.678
tp105
a(F1.966
F0.697
tp106
a(F1.9609999999999999
F0.703
tp107
a(F1.95
F0.715
tp108
a(F1.944
F0.72
tp109
a(F1.926
F0.735
tp110
a(F1.914
F0.744
tp111
a(F1.908
F0.748
tp112
a(F1.894
F0.757
tp113
a(F1.887
F0.761
tp114
a(F1.8699999999999999
F0.77
tp115
a(F1.861
F0.774
tp116
a(F1.847
F0.78
tp117
a(F1.3729999999999998
F0.982
tp118
a(F-1.166
F0.982
tp119
a(F-1.8939999999999997
F0.749
tp120
a(F-1.903
F0.746
tp121
a(F-1.9209999999999998
F0.739
tp122
a(F-1.9300000000000002
F0.735
tp123
a(F-1.9380000000000002
F0.731
tp124
a(F-1.9470000000000005
F0.726
tp125
a(F-1.956
F0.721
tp126
a(F-1.9630000000000005
F0.716
tp127
a(F-1.9710000000000005
F0.71
tp128
a(F-1.9780000000000002
F0.704
tp129
a(F-1.9860000000000002
F0.697
tp130
a(F-1.999
F0.682
tp131
a(F-2.004
F0.676
tp132
a(F-2.0100000000000002
F0.667
tp133
a(F-2.0189999999999997
F0.652
tp134
a(F-2.023
F0.644
tp135
a(F-2.0269999999999997
F0.636
tp136
a(F-2.0340000000000003
F0.619
tp137
a(F-2.0400000000000005
F0.602
tp138
a(F-2.0480000000000005
F0.576
tp139
a(F-2.052
F0.56
tp140
a(F-2.0560000000000005
F0.543
tp141
a(F-2.06
F0.526
tp142
a(F-2.068
F0.491
tp143
a(F-2.073
F0.464
tp144
a(F-2.076
F0.447
tp145
a(F-2.079
F0.429
tp146
a(F-2.0829999999999997
F0.402
tp147
a(F-2.089
F0.358
tp148
a(F-2.0909999999999997
F0.341
tp149
a(F-2.0930000000000004
F0.323
tp150
a(F-2.0960000000000005
F0.296
tp151
a(F-2.097
F0.287
tp152
a(F-2.1010000000000004
F0.243
tp153
a(F-2.103
F0.216
tp154
a(F-2.1060000000000003
F0.162
tp155
a(F-2.1069999999999998
F0.144
tp156
a(F-2.1090000000000004
F0.091
tp157
a(F-2.11
F0.046
tp158
a.